; Function Attrs: mustprogress nofree nounwind willreturn memory(read, inaccessiblemem: none) uwtable
define hidden ptr @mbedtls_cipher_info_from_string(ptr noundef readonly captures(address_is_null) %0) local_unnamed_addr #3 {
  %2 = icmp eq ptr %0, null
  br i1 %2, label %.loopexit, label %.preheader

.preheader:                                       ; preds = %1
  %3 = load ptr, ptr getelementptr inbounds nuw (i8, ptr @mbedtls_cipher_definitions, i64 8), align 8, !tbaa !14
  %.not11 = icmp eq ptr %3, null
  br i1 %.not11, label %.loopexit, label %.lr.ph

4:                                                ; preds = %.lr.ph
  %5 = getelementptr inbounds nuw i8, ptr %.012, i64 16
  %6 = getelementptr inbounds nuw i8, ptr %.012, i64 24
  %7 = load ptr, ptr %6, align 8, !tbaa !14
  %.not = icmp eq ptr %7, null
  br i1 %.not, label %.loopexit, label %.lr.ph, !llvm.loop !16

.lr.ph:                                           ; preds = %.preheader, %4
  %8 = phi ptr [ %7, %4 ], [ %3, %.preheader ]
  %.012 = phi ptr [ %5, %4 ], [ @mbedtls_cipher_definitions, %.preheader ]
  %9 = getelementptr inbounds nuw i8, ptr %8, i64 16
  %10 = load ptr, ptr %9, align 8, !tbaa !17
  %11 = tail call i32 @strcmp(ptr noundef nonnull dereferenceable(1) %10, ptr noundef nonnull dereferenceable(1) %0) #13
  %.not10 = icmp eq i32 %11, 0
  br i1 %.not10, label %.loopexit, label %4

.loopexit:                                        ; preds = %.lr.ph, %4, %.preheader, %1
  %.07 = phi ptr [ null, %1 ], [ null, %.preheader ], [ %8, %.lr.ph ], [ null, %4 ]
  ret ptr %.07
}